target datalayout = "e-m:e-p270:32:32-p271:32:32-p272:64:64-i64:64-i128:128-f80:128-n8:16:32:64-S128"
target triple = "x86_64-pc-linux-gnu"

%struct.JNINativeInterface_ = type { ptr, ptr, ptr, ptr, ptr, ptr, ptr, ptr, ptr, ptr, ptr, ptr, ptr, ptr, ptr, ptr, ptr, ptr, ptr, ptr, ptr, ptr, ptr, ptr, ptr, ptr, ptr, ptr, ptr, ptr, ptr, ptr, ptr, ptr, ptr, ptr, ptr, ptr, ptr, ptr, ptr, ptr, ptr, ptr, ptr, ptr, ptr, ptr, ptr, ptr, ptr, ptr, ptr, ptr, ptr, ptr, ptr, ptr, ptr, ptr, ptr, ptr, ptr, ptr, ptr, ptr, ptr, ptr, ptr, ptr, ptr, ptr, ptr, ptr, ptr, ptr, ptr, ptr, ptr, ptr, ptr, ptr, ptr, ptr, ptr, ptr, ptr, ptr, ptr, ptr, ptr, ptr, ptr, ptr, ptr, ptr, ptr, ptr, ptr, ptr, ptr, ptr, ptr, ptr, ptr, ptr, ptr, ptr, ptr, ptr, ptr, ptr, ptr, ptr, ptr, ptr, ptr, ptr, ptr, ptr, ptr, ptr, ptr, ptr, ptr, ptr, ptr, ptr, ptr, ptr, ptr, ptr, ptr, ptr, ptr, ptr, ptr, ptr, ptr, ptr, ptr, ptr, ptr, ptr, ptr, ptr, ptr, ptr, ptr, ptr, ptr, ptr, ptr, ptr, ptr, ptr, ptr, ptr, ptr, ptr, ptr, ptr, ptr, ptr, ptr, ptr, ptr, ptr, ptr, ptr, ptr, ptr, ptr, ptr, ptr, ptr, ptr, ptr, ptr, ptr, ptr, ptr, ptr, ptr, ptr, ptr, ptr, ptr, ptr, ptr, ptr, ptr, ptr, ptr, ptr, ptr, ptr, ptr, ptr, ptr, ptr, ptr, ptr, ptr, ptr, ptr, ptr, ptr, ptr, ptr, ptr, ptr, ptr, ptr, ptr, ptr, ptr, ptr, ptr, ptr, ptr, ptr, ptr, ptr, ptr, ptr, ptr, ptr, ptr, ptr, ptr, ptr, ptr, ptr, ptr }

@.str.1 = private unnamed_addr constant [15 x i8] c"NSS_Initialize\00", align 1
@.str.2 = private unnamed_addr constant [10 x i8] c"secmod.db\00", align 1
@.str.3 = private unnamed_addr constant [5 x i8] c"sql:\00", align 1
@.str.4 = private unnamed_addr constant [11 x i8] c"pkcs11.txt\00", align 1
@.str.5 = private unnamed_addr constant [9 x i8] c"NSS_Init\00", align 1
@.str.6 = private unnamed_addr constant [1 x i8] zeroinitializer, align 1
@.str.7 = private unnamed_addr constant [18 x i8] c"NSS_InitReadWrite\00", align 1
@.str.8 = private unnamed_addr constant [14 x i8] c"NSS_NoDB_Init\00", align 1

; Function Attrs: nounwind uwtable
define zeroext i8 @Java_sun_security_pkcs11_Secmod_nssInitialize(ptr noundef %0, ptr noundef %1, ptr noundef %2, i64 noundef %3, ptr noundef %4, i8 noundef zeroext %5) #0 {
  %7 = alloca ptr, align 8
  %8 = alloca ptr, align 8
  %9 = alloca ptr, align 8
  %10 = alloca i64, align 8
  %11 = alloca ptr, align 8
  %12 = alloca i8, align 1
  %13 = alloca i32, align 4
  %14 = alloca ptr, align 8
  %15 = alloca i32, align 4
  %16 = alloca ptr, align 8
  %17 = alloca ptr, align 8
  %18 = alloca ptr, align 8
  store ptr %0, ptr %7, align 8
  store ptr %1, ptr %8, align 8
  store ptr %2, ptr %9, align 8
  store i64 %3, ptr %10, align 8
  store ptr %4, ptr %11, align 8
  store i8 %5, ptr %12, align 1
  store i32 0, ptr %13, align 4
  %19 = load ptr, ptr %7, align 8
  %20 = load i64, ptr %10, align 8
  %21 = call ptr @p11FindFunction(ptr noundef %19, i64 noundef %20, ptr noundef @.str.1)
  store ptr %21, ptr %14, align 8
  store i32 0, ptr %15, align 4
  store ptr null, ptr %16, align 8
  store ptr null, ptr %17, align 8
  store ptr null, ptr %18, align 8
  %22 = load ptr, ptr %14, align 8
  %23 = icmp eq ptr %22, null
  br i1 %23, label %24, label %25

24:                                               ; preds = %6
  store i32 1, ptr %13, align 4
  br label %103

25:                                               ; preds = %6
  %26 = load ptr, ptr %7, align 8
  %27 = load ptr, ptr %26, align 8
  %28 = getelementptr inbounds %struct.JNINativeInterface_, ptr %27, i32 0, i32 169
  %29 = load ptr, ptr %28, align 8
  %30 = load ptr, ptr %7, align 8
  %31 = load ptr, ptr %9, align 8
  %32 = call ptr %29(ptr noundef %30, ptr noundef %31, ptr noundef null)
  store ptr %32, ptr %17, align 8
  %33 = load ptr, ptr %17, align 8
  %34 = icmp eq ptr %33, null
  br i1 %34, label %35, label %36

35:                                               ; preds = %25
  store i32 1, ptr %13, align 4
  br label %103

36:                                               ; preds = %25
  %37 = load ptr, ptr %11, align 8
  %38 = icmp ne ptr %37, null
  br i1 %38, label %39, label %51

39:                                               ; preds = %36
  %40 = load ptr, ptr %7, align 8
  %41 = load ptr, ptr %40, align 8
  %42 = getelementptr inbounds %struct.JNINativeInterface_, ptr %41, i32 0, i32 169
  %43 = load ptr, ptr %42, align 8
  %44 = load ptr, ptr %7, align 8
  %45 = load ptr, ptr %11, align 8
  %46 = call ptr %43(ptr noundef %44, ptr noundef %45, ptr noundef null)
  store ptr %46, ptr %16, align 8
  %47 = load ptr, ptr %16, align 8
  %48 = icmp ne ptr %47, null
  br i1 %48, label %50, label %49

49:                                               ; preds = %39
  store i32 1, ptr %13, align 4
  br label %103

50:                                               ; preds = %39
  br label %51

51:                                               ; preds = %50, %36
  %52 = load i8, ptr %12, align 1
  %53 = zext i8 %52 to i32
  %54 = icmp eq i32 %53, 1
  br i1 %54, label %55, label %56

55:                                               ; preds = %51
  store i32 32, ptr %15, align 4
  br label %56

56:                                               ; preds = %55, %51
  store ptr @.str.2, ptr %18, align 8
  %57 = load ptr, ptr %16, align 8
  %58 = icmp ne ptr %57, null
  br i1 %58, label %59, label %64

59:                                               ; preds = %56
  %60 = load ptr, ptr %16, align 8
  %61 = call i32 @strncmp(ptr noundef @.str.3, ptr noundef %60, i64 noundef 4) #3
  %62 = icmp eq i32 %61, 0
  br i1 %62, label %63, label %64

63:                                               ; preds = %59
  store ptr @.str.4, ptr %18, align 8
  br label %64

64:                                               ; preds = %63, %59, %56
  %65 = load ptr, ptr %17, align 8
  %66 = call i32 @strcmp(ptr noundef @.str.5, ptr noundef %65) #3
  %67 = icmp eq i32 %66, 0
  br i1 %67, label %68, label %76

68:                                               ; preds = %64
  %69 = load i32, ptr %15, align 4
  %70 = or i32 %69, 1
  store i32 %70, ptr %15, align 4
  %71 = load ptr, ptr %14, align 8
  %72 = load ptr, ptr %16, align 8
  %73 = load ptr, ptr %18, align 8
  %74 = load i32, ptr %15, align 4
  %75 = call i32 %71(ptr noundef %72, ptr noundef @.str.6, ptr noundef @.str.6, ptr noundef %73, i32 noundef %74)
  store i32 %75, ptr %13, align 4
  br label %102

76:                                               ; preds = %64
  %77 = load ptr, ptr %17, align 8
  %78 = call i32 @strcmp(ptr noundef @.str.7, ptr noundef %77) #3
  %79 = icmp eq i32 %78, 0
  br i1 %79, label %80, label %86

80:                                               ; preds = %76
  %81 = load ptr, ptr %14, align 8
  %82 = load ptr, ptr %16, align 8
  %83 = load ptr, ptr %18, align 8
  %84 = load i32, ptr %15, align 4
  %85 = call i32 %81(ptr noundef %82, ptr noundef @.str.6, ptr noundef @.str.6, ptr noundef %83, i32 noundef %84)
  store i32 %85, ptr %13, align 4
  br label %101

86:                                               ; preds = %76
  %87 = load ptr, ptr %17, align 8
  %88 = call i32 @strcmp(ptr noundef @.str.8, ptr noundef %87) #3
  %89 = icmp eq i32 %88, 0
  br i1 %89, label %90, label %99

90:                                               ; preds = %86
  %91 = load i32, ptr %15, align 4
  %92 = or i32 %91, 2
  %93 = or i32 %92, 4
  %94 = or i32 %93, 8
  %95 = or i32 %94, 16
  store i32 %95, ptr %15, align 4
  %96 = load ptr, ptr %14, align 8
  %97 = load i32, ptr %15, align 4
  %98 = call i32 %96(ptr noundef @.str.6, ptr noundef @.str.6, ptr noundef @.str.6, ptr noundef @.str.6, i32 noundef %97)
  store i32 %98, ptr %13, align 4
  br label %100

99:                                               ; preds = %86
  store i32 2, ptr %13, align 4
  br label %100

100:                                              ; preds = %99, %90
  br label %101

101:                                              ; preds = %100, %80
  br label %102

102:                                              ; preds = %101, %68
  br label %103

103:                                              ; preds = %102, %49, %35, %24
  %104 = load ptr, ptr %17, align 8
  %105 = icmp ne ptr %104, null
  br i1 %105, label %106, label %114

106:                                              ; preds = %103
  %107 = load ptr, ptr %7, align 8
  %108 = load ptr, ptr %107, align 8
  %109 = getelementptr inbounds %struct.JNINativeInterface_, ptr %108, i32 0, i32 170
  %110 = load ptr, ptr %109, align 8
  %111 = load ptr, ptr %7, align 8
  %112 = load ptr, ptr %9, align 8
  %113 = load ptr, ptr %17, align 8
  call void %110(ptr noundef %111, ptr noundef %112, ptr noundef %113)
  br label %114

114:                                              ; preds = %106, %103
  %115 = load ptr, ptr %16, align 8
  %116 = icmp ne ptr %115, null
  br i1 %116, label %117, label %125

117:                                              ; preds = %114
  %118 = load ptr, ptr %7, align 8
  %119 = load ptr, ptr %118, align 8
  %120 = getelementptr inbounds %struct.JNINativeInterface_, ptr %119, i32 0, i32 170
  %121 = load ptr, ptr %120, align 8
  %122 = load ptr, ptr %7, align 8
  %123 = load ptr, ptr %11, align 8
  %124 = load ptr, ptr %16, align 8
  call void %121(ptr noundef %122, ptr noundef %123, ptr noundef %124)
  br label %125

125:                                              ; preds = %117, %114
  %126 = load i32, ptr %13, align 4
  %127 = icmp eq i32 %126, 0
  %128 = select i1 %127, i32 1, i32 0
  %129 = trunc i32 %128 to i8
  ret i8 %129
}