; Function Attrs: nounwind uwtable
define zeroext range(i8 0, 2) i8 @Java_sun_security_pkcs11_Secmod_nssInitialize(ptr noundef %0, ptr nocapture noundef readnone %1, ptr noundef %2, i64 noundef %3, ptr noundef %4, i8 noundef zeroext %5) local_unnamed_addr #0 {
  %7 = tail call ptr @p11FindFunction(ptr noundef %0, i64 noundef %3, ptr noundef nonnull @.str.1) #3
  %8 = icmp eq ptr %7, null
  br i1 %8, label %.thread71, label %9

9:                                                ; preds = %6
  %10 = load ptr, ptr %0, align 8
  %11 = getelementptr inbounds i8, ptr %10, i64 1352
  %12 = load ptr, ptr %11, align 8
  %13 = tail call ptr %12(ptr noundef nonnull %0, ptr noundef %2, ptr noundef null) #3
  %14 = icmp eq ptr %13, null
  br i1 %14, label %.thread71, label %15

15:                                               ; preds = %9
  %.not = icmp eq ptr %4, null
  br i1 %.not, label %.thread, label %17

.thread:                                          ; preds = %15
  %16 = icmp eq i8 %5, 1
  %spec.select56 = select i1 %16, i32 32, i32 0
  br label %26

17:                                               ; preds = %15
  %18 = load ptr, ptr %0, align 8
  %19 = getelementptr inbounds i8, ptr %18, i64 1352
  %20 = load ptr, ptr %19, align 8
  %21 = tail call ptr %20(ptr noundef nonnull %0, ptr noundef nonnull %4, ptr noundef null) #3
  %.not50 = icmp eq ptr %21, null
  br i1 %.not50, label %43, label %22

22:                                               ; preds = %17
  %23 = icmp eq i8 %5, 1
  %spec.select = select i1 %23, i32 32, i32 0
  %24 = tail call i32 @strncmp(ptr noundef nonnull dereferenceable(5) @.str.3, ptr noundef nonnull dereferenceable(1) %21, i64 noundef 4) #4
  %25 = icmp eq i32 %24, 0
  %spec.select54 = select i1 %25, ptr @.str.4, ptr @.str.2
  br label %26

26:                                               ; preds = %.thread, %22
  %spec.select59 = phi i32 [ %spec.select, %22 ], [ %spec.select56, %.thread ]
  %.04158 = phi ptr [ %21, %22 ], [ null, %.thread ]
  %.0 = phi ptr [ %spec.select54, %22 ], [ @.str.2, %.thread ]
  %27 = tail call i32 @strcmp(ptr noundef nonnull dereferenceable(9) @.str.5, ptr noundef nonnull dereferenceable(1) %13) #4
  %28 = icmp eq i32 %27, 0
  br i1 %28, label %29, label %32

29:                                               ; preds = %26
  %30 = or disjoint i32 %spec.select59, 1
  %31 = tail call i32 %7(ptr noundef %.04158, ptr noundef nonnull @.str.6, ptr noundef nonnull @.str.6, ptr noundef nonnull %.0, i32 noundef %30) #3
  br label %43

32:                                               ; preds = %26
  %33 = tail call i32 @strcmp(ptr noundef nonnull dereferenceable(18) @.str.7, ptr noundef nonnull dereferenceable(1) %13) #4
  %34 = icmp eq i32 %33, 0
  br i1 %34, label %35, label %37

35:                                               ; preds = %32
  %36 = tail call i32 %7(ptr noundef %.04158, ptr noundef nonnull @.str.6, ptr noundef nonnull @.str.6, ptr noundef nonnull %.0, i32 noundef %spec.select59) #3
  br label %43

37:                                               ; preds = %32
  %38 = tail call i32 @strcmp(ptr noundef nonnull dereferenceable(14) @.str.8, ptr noundef nonnull dereferenceable(1) %13) #4
  %39 = icmp eq i32 %38, 0
  br i1 %39, label %40, label %43

40:                                               ; preds = %37
  %41 = or disjoint i32 %spec.select59, 30
  %42 = tail call i32 %7(ptr noundef nonnull @.str.6, ptr noundef nonnull @.str.6, ptr noundef nonnull @.str.6, ptr noundef nonnull @.str.6, i32 noundef %41) #3
  br label %43

43:                                               ; preds = %37, %17, %40, %35, %29
  %.043.ph = phi i32 [ 1, %37 ], [ 1, %17 ], [ %42, %40 ], [ %36, %35 ], [ %31, %29 ]
  %.1.ph = phi ptr [ %.04158, %37 ], [ null, %17 ], [ %.04158, %40 ], [ %.04158, %35 ], [ %.04158, %29 ]
  %44 = load ptr, ptr %0, align 8
  %45 = getelementptr inbounds i8, ptr %44, i64 1360
  %46 = load ptr, ptr %45, align 8
  tail call void %46(ptr noundef nonnull %0, ptr noundef %2, ptr noundef nonnull %13) #3
  %.not53 = icmp eq ptr %.1.ph, null
  br i1 %.not53, label %.thread71, label %47

47:                                               ; preds = %43
  %48 = load ptr, ptr %0, align 8
  %49 = getelementptr inbounds i8, ptr %48, i64 1360
  %50 = load ptr, ptr %49, align 8
  tail call void %50(ptr noundef nonnull %0, ptr noundef %4, ptr noundef nonnull %.1.ph) #3
  br label %.thread71

.thread71:                                        ; preds = %9, %6, %47, %43
  %.0436675 = phi i32 [ %.043.ph, %47 ], [ %.043.ph, %43 ], [ 1, %6 ], [ 1, %9 ]
  %51 = icmp eq i32 %.0436675, 0
  %52 = zext i1 %51 to i8
  ret i8 %52
}